	.cpu cortex-m4
	.eabi_attribute 27, 1
	.eabi_attribute 28, 1
	.eabi_attribute 20, 1
	.eabi_attribute 21, 1
	.eabi_attribute 23, 3
	.eabi_attribute 24, 1
	.eabi_attribute 25, 1
	.eabi_attribute 26, 1
	.eabi_attribute 30, 1
	.eabi_attribute 34, 1
	.eabi_attribute 18, 4
	.file	"ControllerTask.c"
	.text
.Ltext0:
	.section	.text.getThetaTarget,"ax",%progbits
	.align	1
	.global	getThetaTarget
	.syntax unified
	.thumb
	.thumb_func
	.fpu fpv4-sp-d16
	.type	getThetaTarget, %function
getThetaTarget:
.LFB293:
	.file 1 "C:\\nRF5_SDK_15.0.0_a53641a\\examples\\ble_peripheral\\slam\\software\\ControllerTask.c"
	.loc 1 247 23 view -0
	@ args = 0, pretend = 0, frame = 0
	@ frame_needed = 0, uses_anonymous_args = 0
	@ link register save eliminated.
	.loc 1 248 2 view .LVU1
	.loc 1 249 1 is_stmt 0 view .LVU2
	ldr	r3, .L2
	vldr.32	s0, [r3]
	bx	lr
.L3:
	.align	2
.L2:
	.word	.LANCHOR0
.LFE293:
	.size	getThetaTarget, .-getThetaTarget
	.section	.text.runDistanceController,"ax",%progbits
	.align	1
	.global	runDistanceController
	.syntax unified
	.thumb
	.thumb_func
	.fpu fpv4-sp-d16
	.type	runDistanceController, %function
runDistanceController:
.LVL0:
.LFB294:
	.loc 1 255 78 is_stmt 1 view -0
	@ args = 0, pretend = 0, frame = 0
	@ frame_needed = 0, uses_anonymous_args = 0
	.loc 1 255 78 is_stmt 0 view .LVU4
	push	{r3, lr}
.LCFI0:
	.loc 1 257 2 is_stmt 1 view .LVU5
.LVL1:
	.loc 1 258 2 view .LVU6
	.loc 1 259 2 view .LVU7
	.loc 1 261 2 view .LVU8
	.loc 1 261 8 is_stmt 0 view .LVU9
	vldr.32	s15, .L11
	vmul.f32	s0, s0, s15
.LVL2:
	.loc 1 264 2 is_stmt 1 view .LVU10
	.loc 1 264 16 is_stmt 0 view .LVU11
	ldr	r3, .L11+4
	vldr.32	s14, [r3]
	vadd.f32	s14, s1, s14
	vstr.32	s14, [r3]
	.loc 1 266 2 is_stmt 1 view .LVU12
.LVL3:
	.loc 1 267 2 view .LVU13
	.loc 1 271 2 view .LVU14
	.loc 1 271 14 is_stmt 0 view .LVU15
	ldr	r3, .L11+8
	vldr.32	s15, [r3]
	.loc 1 271 4 view .LVU16
	vcmpe.f32	s15, s0
	vmrs	APSR_nzcv, FPSCR
	bmi	.L5
	.loc 1 274 8 is_stmt 1 view .LVU17
	.loc 1 274 20 is_stmt 0 view .LVU18
	ldr	r3, .L11+12
	vldr.32	s15, [r3]
	.loc 1 274 10 view .LVU19
	vcmpe.f32	s15, s0
	vmrs	APSR_nzcv, FPSCR
	ble	.L9
	.loc 1 274 39 discriminator 1 view .LVU20
	ldr	r3, .L11+16
	vldr.32	s13, [r3]
	.loc 1 274 27 discriminator 1 view .LVU21
	vcmpe.f32	s13, s0
	vmrs	APSR_nzcv, FPSCR
	bmi	.L5
	.loc 1 261 8 view .LVU22
	vmov.f32	s15, s0
	b	.L5
.L9:
	.loc 1 261 8 view .LVU23
	vmov.f32	s15, s0
.L5:
.LVL4:
	.loc 1 281 2 is_stmt 1 view .LVU24
	.loc 1 286 2 view .LVU25
	.loc 1 286 19 is_stmt 0 view .LVU26
	vldr.32	s13, .L11+20
	vmul.f32	s1, s1, s13
.LVL5:
	.loc 1 286 38 view .LVU27
	vmov.f32	s13, #5.0e+0
	vmul.f32	s14, s14, s13
	.loc 1 286 8 view .LVU28
	vadd.f32	s1, s1, s14
.LVL6:
	.loc 1 288 2 is_stmt 1 view .LVU29
	.loc 1 288 31 is_stmt 0 view .LVU30
	vsub.f32	s14, s15, s1
.LVL7:
	.loc 1 289 2 is_stmt 1 view .LVU31
	.loc 1 289 32 is_stmt 0 view .LVU32
	vadd.f32	s1, s15, s1
.LVL8:
	.loc 1 294 2 is_stmt 1 view .LVU33
	vcvt.s32.f32	s15, s1
.LVL9:
	.loc 1 294 2 is_stmt 0 view .LVU34
	vmov	r1, s15	@ int
	vcvt.s32.f32	s15, s14
.LVL10:
	.loc 1 294 2 view .LVU35
	vmov	r0, s15	@ int
	bl	vMotorMovementSwitch
.LVL11:
	.loc 1 296 1 view .LVU36
	pop	{r3, pc}
.L12:
	.align	2
.L11:
	.word	1022739087
	.word	.LANCHOR1
	.word	.LANCHOR2
	.word	.LANCHOR3
	.word	.LANCHOR4
	.word	1114636288
.LFE294:
	.size	runDistanceController, .-runDistanceController
	.global	__aeabi_f2d
	.global	__aeabi_dcmpgt
	.global	__aeabi_ddiv
	.global	__aeabi_dmul
	.global	__aeabi_d2f
	.global	__aeabi_dcmplt
	.section	.text.runThetaController,"ax",%progbits
	.align	1
	.global	runThetaController
	.syntax unified
	.thumb
	.thumb_func
	.fpu fpv4-sp-d16
	.type	runThetaController, %function
runThetaController:
.LVL12:
.LFB295:
	.loc 1 302 41 is_stmt 1 view -0
	@ args = 0, pretend = 0, frame = 0
	@ frame_needed = 0, uses_anonymous_args = 0
	.loc 1 302 41 is_stmt 0 view .LVU38
	push	{r3, r4, r5, lr}
.LCFI1:
	vpush.64	{d8, d9}
.LCFI2:
	.loc 1 303 2 is_stmt 1 view .LVU39
	.loc 1 303 5 is_stmt 0 view .LVU40
	ldr	r3, .L25
	ldrb	r3, [r3]	@ zero_extendqisi2
	.loc 1 303 4 view .LVU41
	cbz	r3, .L14
	.loc 1 304 3 is_stmt 1 view .LVU42
	.loc 1 304 17 is_stmt 0 view .LVU43
	ldr	r3, .L25+4
	vldr.32	s15, [r3]
	vadd.f32	s15, s15, s0
	vstr.32	s15, [r3]
.L14:
	.loc 1 306 2 is_stmt 1 view .LVU44
.LVL13:
	.loc 1 307 2 view .LVU45
	.loc 1 308 2 view .LVU46
	.loc 1 309 2 view .LVU47
	.loc 1 309 15 is_stmt 0 view .LVU48
	vmov.f32	s16, #3.0e+1
	vmul.f32	s0, s0, s16
.LVL14:
	.loc 1 309 30 view .LVU49
	ldr	r3, .L25+4
	vldr.32	s16, [r3]
	vldr.32	s15, .L25+8
	vmul.f32	s16, s16, s15
	.loc 1 309 26 view .LVU50
	vadd.f32	s0, s0, s16
	.loc 1 309 49 view .LVU51
	ldr	r3, .L25+12
	vldr.32	s16, [r3]
	vadd.f32	s16, s16, s16
	.loc 1 309 8 view .LVU52
	vadd.f32	s16, s0, s16
.LVL15:
	.loc 1 311 2 is_stmt 1 view .LVU53
	.loc 1 311 5 is_stmt 0 view .LVU54
	vmov	r0, s16
	bl	__aeabi_f2d
.LVL16:
	vmov	d9, r0, r1
	vmov	d0, r0, r1
	bl	fabs
.LVL17:
	vmov	r4, r5, d0
	.loc 1 311 13 view .LVU55
	ldr	r3, .L25+16
	ldr	r0, [r3]	@ float
	bl	__aeabi_f2d
.LVL18:
	mov	r2, r0
	mov	r3, r1
	.loc 1 311 4 view .LVU56
	mov	r0, r4
	mov	r1, r5
	bl	__aeabi_dcmpgt
.LVL19:
	cbz	r0, .L23
	.loc 1 312 3 is_stmt 1 view .LVU57
	.loc 1 312 18 is_stmt 0 view .LVU58
	vmov.f32	s0, s18
	vmov.f32	s1, s19
	bl	fabs
.LVL20:
	vmov	r2, r3, d0
	.loc 1 312 17 view .LVU59
	vmov	r0, r1, d9
	bl	__aeabi_ddiv
.LVL21:
	mov	r4, r0
	mov	r5, r1
	.loc 1 312 26 view .LVU60
	ldr	r3, .L25+16
	ldr	r0, [r3]	@ float
	bl	__aeabi_f2d
.LVL22:
	mov	r2, r4
	mov	r3, r5
	bl	__aeabi_dmul
.LVL23:
	.loc 1 312 5 view .LVU61
	bl	__aeabi_d2f
.LVL24:
	vmov	s16, r0
.LVL25:
	.loc 1 313 3 is_stmt 1 view .LVU62
	.loc 1 313 18 is_stmt 0 view .LVU63
	ldr	r3, .L25
	movs	r2, #0
	strb	r2, [r3]
.LVL26:
.L17:
	.loc 1 321 2 is_stmt 1 view .LVU64
	.loc 1 323 2 view .LVU65
	.loc 1 323 23 is_stmt 0 view .LVU66
	vneg.f32	s15, s16
.LVL27:
	.loc 1 324 2 is_stmt 1 view .LVU67
	.loc 1 326 2 view .LVU68
	vcvt.s32.f32	s14, s16
.LVL28:
	.loc 1 326 2 is_stmt 0 view .LVU69
	vmov	r1, s14	@ int
	vcvt.s32.f32	s15, s15
.LVL29:
	.loc 1 326 2 view .LVU70
	vmov	r0, s15	@ int
	bl	vMotorMovementSwitch
.LVL30:
	.loc 1 328 1 view .LVU71
	vldm	sp!, {d8-d9}
.LCFI3:
.LVL31:
	.loc 1 328 1 view .LVU72
	pop	{r3, r4, r5, pc}
.LVL32:
.L23:
.LCFI4:
	.loc 1 315 8 is_stmt 1 view .LVU73
	.loc 1 315 11 is_stmt 0 view .LVU74
	vmov.f32	s0, s18
	vmov.f32	s1, s19
	bl	fabs
.LVL33:
	vmov	r4, r5, d0
	.loc 1 315 19 view .LVU75
	ldr	r3, .L25+20
	ldr	r0, [r3]	@ float
	bl	__aeabi_f2d
.LVL34:
	mov	r2, r0
	mov	r3, r1
	.loc 1 315 10 view .LVU76
	mov	r0, r4
	mov	r1, r5
	bl	__aeabi_dcmplt
.LVL35:
	cmp	r0, #0
	beq	.L17
	.loc 1 315 29 discriminator 1 view .LVU77
	vmov.f32	s0, s18
	vmov.f32	s1, s19
	bl	fabs
.LVL36:
	vmov	r4, r5, d0
	.loc 1 315 37 discriminator 1 view .LVU78
	ldr	r3, .L25+24
	ldr	r0, [r3]	@ float
	bl	__aeabi_f2d
.LVL37:
	mov	r2, r0
	mov	r3, r1
	.loc 1 315 26 discriminator 1 view .LVU79
	mov	r0, r4
	mov	r1, r5
	bl	__aeabi_dcmpgt
.LVL38:
	cmp	r0, #0
	beq	.L17
	.loc 1 316 3 is_stmt 1 view .LVU80
	.loc 1 316 18 is_stmt 0 view .LVU81
	vmov.f32	s0, s18
	vmov.f32	s1, s19
	bl	fabs
.LVL39:
	vmov	r2, r3, d0
	.loc 1 316 17 view .LVU82
	vmov	r0, r1, d9
	bl	__aeabi_ddiv
.LVL40:
	mov	r4, r0
	mov	r5, r1
	.loc 1 316 26 view .LVU83
	ldr	r3, .L25+20
	ldr	r0, [r3]	@ float
	bl	__aeabi_f2d
.LVL41:
	mov	r2, r4
	mov	r3, r5
	bl	__aeabi_dmul
.LVL42:
	.loc 1 316 5 view .LVU84
	bl	__aeabi_d2f
.LVL43:
	vmov	s16, r0
.LVL44:
	.loc 1 317 3 is_stmt 1 view .LVU85
	.loc 1 317 18 is_stmt 0 view .LVU86
	ldr	r3, .L25
	movs	r2, #1
	strb	r2, [r3]
	b	.L17
.L26:
	.align	2
.L25:
	.word	.LANCHOR5
	.word	.LANCHOR6
	.word	0
	.word	.LANCHOR7
	.word	.LANCHOR2
	.word	.LANCHOR3
	.word	.LANCHOR4
.LFE295:
	.size	runThetaController, .-runThetaController
	.section	.rodata.vMainPoseControllerTask.str1.4,"aMS",%progbits,1
	.align	2
.LC0:
	.ascii	"Tx:%i Ty:%i\000"
	.align	2
.LC1:
	.ascii	"controller sending idle\000"
	.align	2
.LC2:
	.ascii	"Reached target\000"
	.section	.text.vMainPoseControllerTask,"ax",%progbits
	.align	1
	.global	vMainPoseControllerTask
	.syntax unified
	.thumb
	.thumb_func
	.fpu fpv4-sp-d16
	.type	vMainPoseControllerTask, %function
vMainPoseControllerTask:
.LVL45:
.LFB292:
	.loc 1 50 50 is_stmt 1 view -0
	@ args = 0, pretend = 0, frame = 48
	@ frame_needed = 0, uses_anonymous_args = 0
	.loc 1 50 50 is_stmt 0 view .LVU88
	push	{r4, r5, r6, r7, lr}
.LCFI5:
	vpush.64	{d8, d9, d10, d11, d12}
.LCFI6:
	sub	sp, sp, #52
.LCFI7:
	.loc 1 51 5 is_stmt 1 view .LVU89
.LVL46:
	.loc 1 54 5 view .LVU90
	.loc 1 54 23 is_stmt 0 view .LVU91
	vldr.32	s19, .L57+8
	vstr.32	s19, [sp, #40]
	vstr.32	s19, [sp, #44]
	.loc 1 55 5 is_stmt 1 view .LVU92
.LVL47:
	.loc 1 56 5 view .LVU93
	.loc 1 56 13 is_stmt 0 view .LVU94
	movs	r6, #0
	strb	r6, [sp, #39]
	.loc 1 58 5 is_stmt 1 view .LVU95
.LVL48:
	.loc 1 61 5 view .LVU96
	.loc 1 62 5 view .LVU97
	.loc 1 65 5 view .LVU98
	.loc 1 66 5 view .LVU99
	.loc 1 67 5 view .LVU100
	.loc 1 70 5 view .LVU101
	.loc 1 71 5 view .LVU102
	.loc 1 71 11 is_stmt 0 view .LVU103
	vstr.32	s19, [sp, #32]
	.loc 1 72 2 is_stmt 1 view .LVU104
.LVL49:
	.loc 1 73 5 view .LVU105
	.loc 1 76 5 view .LVU106
	.loc 1 77 5 view .LVU107
	.loc 1 80 5 view .LVU108
	.loc 1 81 2 view .LVU109
	.loc 1 82 5 view .LVU110
	.loc 1 85 5 view .LVU111
	.loc 1 86 5 view .LVU112
	.loc 1 87 5 view .LVU113
	.loc 1 88 5 view .LVU114
	.loc 1 89 5 view .LVU115
	.loc 1 90 5 view .LVU116
	.loc 1 91 5 view .LVU117
	.loc 1 93 5 view .LVU118
	.loc 1 94 1 view .LVU119
	.loc 1 96 5 view .LVU120
	.loc 1 97 5 view .LVU121
	.loc 1 98 5 view .LVU122
	.loc 1 100 2 view .LVU123
	.loc 1 100 29 is_stmt 0 view .LVU124
	bl	xTaskGetTickCount
.LVL50:
	.loc 1 91 11 view .LVU125
	vmov.f32	s23, s19
	.loc 1 90 11 view .LVU126
	vmov.f32	s22, s19
	.loc 1 85 13 view .LVU127
	mov	r5, r6
	.loc 1 82 13 view .LVU128
	mov	r7, r6
	.loc 1 77 11 view .LVU129
	vmov.f32	s21, s19
	.loc 1 76 11 view .LVU130
	vmov.f32	s20, s19
	b	.L28
.LVL51:
.L55:
.LBB2:
.LBB3:
	.loc 1 139 21 is_stmt 1 view .LVU131
	.loc 1 139 28 is_stmt 0 view .LVU132
	vmov.f32	s15, #1.0e+1
	vldr.32	s20, [sp, #40]
.LVL52:
	.loc 1 139 28 view .LVU133
	vmul.f32	s20, s20, s15
.LVL53:
	.loc 1 140 21 is_stmt 1 view .LVU134
	.loc 1 140 45 is_stmt 0 view .LVU135
	vldr.32	s21, [sp, #44]
.LVL54:
	.loc 1 140 28 view .LVU136
	vmul.f32	s21, s21, s15
.LVL55:
	.loc 1 141 21 is_stmt 1 view .LVU137
	.loc 1 142 21 view .LVU138
	.loc 1 142 31 is_stmt 0 view .LVU139
	vcvt.f32.s32	s22, s17
.LVL56:
	.loc 1 143 21 is_stmt 1 view .LVU140
	.loc 1 143 31 is_stmt 0 view .LVU141
	vcvt.f32.s32	s23, s16
.LVL57:
	.loc 1 144 21 is_stmt 1 view .LVU142
	.loc 1 145 21 view .LVU143
	.loc 1 146 21 view .LVU144
	.loc 1 147 21 view .LVU145
	.loc 1 149 21 view .LVU146
	vcvt.s32.f32	s15, s21
	vmov	r3, s15	@ int
	vcvt.s32.f32	s15, s20
	vmov	r2, s15	@ int
	ldr	r1, .L57+12
	add	r0, sp, #12
	bl	sprintf
.LVL58:
	.loc 1 150 21 view .LVU147
	add	r1, sp, #12
	movs	r0, #4
	bl	display_text_on_line
.LVL59:
	.loc 1 145 36 is_stmt 0 view .LVU148
	movs	r5, #0
	.loc 1 146 33 view .LVU149
	mov	r6, r5
	b	.L31
.LVL60:
.L56:
	.loc 1 146 33 view .LVU150
.LBE3:
	.loc 1 175 6 is_stmt 1 view .LVU151
	.loc 1 175 26 is_stmt 0 view .LVU152
	bl	checkForCollision
.LVL61:
	.loc 1 175 26 view .LVU153
	b	.L32
.LVL62:
.L37:
	.loc 1 208 7 is_stmt 1 view .LVU154
	vldr.32	s0, [sp, #32]
	bl	runThetaController
.LVL63:
	.loc 1 210 7 view .LVU155
	.loc 1 210 33 is_stmt 0 view .LVU156
	vldr.32	s15, [sp, #32]
	.loc 1 210 20 view .LVU157
	vcmpe.f32	s15, #0
	vmrs	APSR_nzcv, FPSCR
	bmi	.L53
	movs	r3, #4
.L38:
	.loc 1 210 20 discriminator 4 view .LVU158
	strb	r3, [sp, #39]
	.loc 1 211 7 is_stmt 1 discriminator 4 view .LVU159
	movs	r3, #0
	mov	r2, r3
	add	r1, sp, #39
	ldr	r0, .L57+16
	ldr	r0, [r0]
	bl	xQueueGenericSend
.LVL64:
	.loc 1 213 7 discriminator 4 view .LVU160
	.loc 1 213 10 is_stmt 0 discriminator 4 view .LVU161
	ldr	r0, [sp, #32]	@ float
	bl	__aeabi_f2d
.LVL65:
	vmov	d0, r0, r1
	bl	fabs
.LVL66:
	vmov	r0, r1, d0
	.loc 1 213 9 discriminator 4 view .LVU162
	adr	r3, .L57
	ldrd	r2, [r3]
	bl	__aeabi_dcmplt
.LVL67:
	cbz	r0, .L51
	.loc 1 214 8 is_stmt 1 view .LVU163
	.loc 1 214 24 is_stmt 0 view .LVU164
	ldr	r2, .L57+20
	ldrb	r3, [r2]	@ zero_extendqisi2
	adds	r3, r3, #1
	uxtb	r3, r3
	strb	r3, [r2]
	.loc 1 215 8 is_stmt 1 view .LVU165
	.loc 1 215 10 is_stmt 0 view .LVU166
	cmp	r3, #20
	bls	.L46
	.loc 1 216 9 is_stmt 1 view .LVU167
	.loc 1 216 23 is_stmt 0 view .LVU168
	ldr	r3, .L57+24
	movs	r2, #0
	str	r2, [r3]	@ float
	.loc 1 217 9 is_stmt 1 view .LVU169
.LVL68:
	.loc 1 194 31 is_stmt 0 view .LVU170
	mov	r7, r6
	.loc 1 217 21 view .LVU171
	movs	r6, #1
	b	.L28
.LVL69:
.L53:
	.loc 1 210 20 view .LVU172
	movs	r3, #3
	b	.L38
.LVL70:
.L35:
.LBB4:
	.loc 1 224 21 is_stmt 1 view .LVU173
	.loc 1 224 24 is_stmt 0 view .LVU174
	cbz	r7, .L54
.LVL71:
.L41:
	.loc 1 230 21 is_stmt 1 view .LVU175
	bl	motor_brake
.LVL72:
	.loc 1 231 21 view .LVU176
	.loc 1 231 34 is_stmt 0 view .LVU177
	movs	r2, #0
	strb	r2, [sp, #39]
	.loc 1 232 6 is_stmt 1 view .LVU178
	mov	r3, r2
	add	r1, sp, #39
	ldr	r0, .L57+16
	ldr	r0, [r0]
	bl	xQueueGenericSend
.LVL73:
	.loc 1 233 6 view .LVU179
	ldr	r1, .L57+28
	movs	r0, #4
	bl	display_text_on_line
.LVL74:
	b	.L28
.L54:
.LBB5:
	.loc 1 225 25 discriminator 3 view .LVU180
	.loc 1 225 98 discriminator 3 view .LVU181
	.loc 1 225 153 discriminator 3 view .LVU182
	.loc 1 225 234 is_stmt 0 discriminator 3 view .LVU183
	ldr	r3, .L57+32
	ldrh	r0, [r3]
	.loc 1 225 245 discriminator 3 view .LVU184
	lsls	r0, r0, #16
	.loc 1 225 153 discriminator 3 view .LVU185
	ldr	r1, .L57+36
	orr	r0, r0, #3
	bl	nrf_log_frontend_std_0
.LVL75:
	.loc 1 225 284 is_stmt 1 discriminator 3 view .LVU186
	.loc 1 226 25 discriminator 3 view .LVU187
	bl	send_idle
.LVL76:
	.loc 1 227 25 discriminator 3 view .LVU188
	.loc 1 227 35 is_stmt 0 discriminator 3 view .LVU189
	movs	r7, #1
	b	.L41
.LVL77:
.L51:
	.loc 1 227 35 discriminator 3 view .LVU190
.LBE5:
.LBE4:
	.loc 1 194 31 view .LVU191
	mov	r7, r6
	b	.L28
.L46:
	mov	r7, r6
.LVL78:
	.loc 1 194 31 view .LVU192
	b	.L28
.L58:
	.align	3
.L57:
	.word	-1610612736
	.word	1067573062
	.word	0
	.word	.LC0
	.word	scanStatusQ
	.word	.LANCHOR12
	.word	.LANCHOR6
	.word	.LC2
	.word	m_nrf_log_app_logs_data_dynamic
	.word	.LC1
.LVL79:
.L29:
	.loc 1 194 31 view .LVU193
.LBE2:
	.loc 1 242 13 is_stmt 1 view .LVU194
	bl	motor_brake
.LVL80:
.L28:
	.loc 1 102 5 view .LVU195
	.loc 1 114 9 view .LVU196
	.loc 1 114 13 is_stmt 0 view .LVU197
	ldr	r3, .L59
	ldrb	r3, [r3]	@ zero_extendqisi2
	.loc 1 114 12 view .LVU198
	cmp	r3, #0
	beq	.L29
.LBB6:
	.loc 1 115 4 is_stmt 1 view .LVU199
	.loc 1 115 19 is_stmt 0 view .LVU200
	ldr	r2, .L59+4
	ldr	r3, [r2]
	adds	r3, r3, #1
	str	r3, [r2]
	.loc 1 117 4 is_stmt 1 view .LVU201
	ldr	r4, .L59+8
	movs	r1, #1
	ldr	r0, [r4]
	bl	xQueueSemaphoreTake
.LVL81:
	.loc 1 119 4 view .LVU202
	.loc 1 119 25 is_stmt 0 view .LVU203
	add	r0, sp, #4
	bl	encoder_get_ticks
.LVL82:
	.loc 1 120 4 is_stmt 1 view .LVU204
	.loc 1 120 20 is_stmt 0 view .LVU205
	ldr	r2, [sp, #4]
	ldr	r3, .L59+12
	strh	r2, [r3]	@ movhi
	.loc 1 121 4 is_stmt 1 view .LVU206
	.loc 1 121 21 is_stmt 0 view .LVU207
	ldr	r2, [sp, #8]
	ldr	r3, .L59+16
	strh	r2, [r3]	@ movhi
	.loc 1 122 4 is_stmt 1 view .LVU208
	movs	r3, #0
	mov	r2, r3
	mov	r1, r3
	ldr	r0, [r4]
	bl	xQueueGenericSend
.LVL83:
	.loc 1 124 13 view .LVU209
	.loc 1 124 17 is_stmt 0 view .LVU210
	mov	r1, #-1
	ldr	r3, .L59+20
	ldr	r0, [r3]
	bl	xQueueSemaphoreTake
.LVL84:
	.loc 1 124 16 view .LVU211
	cmp	r0, #1
	bne	.L28
	.loc 1 126 5 is_stmt 1 view .LVU212
	.loc 1 126 22 is_stmt 0 view .LVU213
	ldr	r3, .L59+24
	vstr.32	s19, [r3]
	.loc 1 128 17 is_stmt 1 view .LVU214
	ldr	r4, .L59+28
	mov	r1, #-1
	ldr	r0, [r4]
	bl	xQueueSemaphoreTake
.LVL85:
	.loc 1 129 17 view .LVU215
	.loc 1 129 26 is_stmt 0 view .LVU216
	ldr	r3, .L59+32
	vldr.32	s19, [r3]
.LVL86:
	.loc 1 130 17 is_stmt 1 view .LVU217
	.loc 1 130 22 is_stmt 0 view .LVU218
	ldr	r3, .L59+36
	ldrsh	r3, [r3]
	vmov	s17, r3	@ int
.LVL87:
	.loc 1 131 17 is_stmt 1 view .LVU219
	.loc 1 131 22 is_stmt 0 view .LVU220
	ldr	r3, .L59+40
	ldrsh	r3, [r3]
	vmov	s16, r3	@ int
.LVL88:
	.loc 1 132 17 is_stmt 1 view .LVU221
	.loc 1 133 17 view .LVU222
	.loc 1 134 17 view .LVU223
	movs	r3, #0
	mov	r2, r3
	mov	r1, r3
	ldr	r0, [r4]
	bl	xQueueGenericSend
.LVL89:
	.loc 1 137 17 view .LVU224
	.loc 1 137 21 is_stmt 0 view .LVU225
	movs	r2, #0
	add	r1, sp, #40
	ldr	r3, .L59+44
	ldr	r0, [r3]
	bl	xQueueReceive
.LVL90:
	.loc 1 137 20 view .LVU226
	cmp	r0, #1
	beq	.L55
.LVL91:
.L31:
	.loc 1 153 17 is_stmt 1 view .LVU227
	.loc 1 154 5 view .LVU228
	.loc 1 154 44 is_stmt 0 view .LVU229
	vsub.f32	s15, s20, s22
	.loc 1 154 57 view .LVU230
	vmul.f32	s14, s15, s15
	.loc 1 154 90 view .LVU231
	vsub.f32	s15, s21, s23
	.loc 1 154 103 view .LVU232
	vmul.f32	s15, s15, s15
	.loc 1 154 31 view .LVU233
	vadd.f32	s15, s14, s15
	vmov	r0, s15
	bl	__aeabi_f2d
.LVL92:
	vmov	d0, r0, r1
	bl	sqrt
.LVL93:
	vmov	r0, r1, d0
	.loc 1 154 24 view .LVU234
	bl	__aeabi_d2f
.LVL94:
	.loc 1 154 22 view .LVU235
	ldr	r3, .L59+48
	str	r0, [r3]	@ float
	.loc 1 155 17 is_stmt 1 view .LVU236
	.loc 1 155 53 is_stmt 0 view .LVU237
	vcvt.f32.s32	s17, s17
.LVL95:
	.loc 1 155 53 view .LVU238
	vsub.f32	s25, s20, s17
	.loc 1 155 61 view .LVU239
	vmul.f32	s14, s25, s25
	.loc 1 155 89 view .LVU240
	vcvt.f32.s32	s16, s16
.LVL96:
	.loc 1 155 89 view .LVU241
	vsub.f32	s24, s21, s16
	.loc 1 155 97 view .LVU242
	vmul.f32	s15, s24, s24
	.loc 1 155 40 view .LVU243
	vadd.f32	s15, s14, s15
	vmov	r0, s15
	bl	__aeabi_f2d
.LVL97:
	vmov	d0, r0, r1
	bl	sqrt
.LVL98:
	vmov	r0, r1, d0
	.loc 1 155 31 view .LVU244
	bl	__aeabi_d2f
.LVL99:
	vmov	s18, r0
.LVL100:
	.loc 1 156 5 is_stmt 1 view .LVU245
	.loc 1 156 40 is_stmt 0 view .LVU246
	vsub.f32	s17, s17, s22
	.loc 1 156 53 view .LVU247
	vmul.f32	s17, s17, s17
	.loc 1 156 82 view .LVU248
	vsub.f32	s16, s16, s23
	.loc 1 156 95 view .LVU249
	vmul.f32	s16, s16, s16
	.loc 1 156 29 view .LVU250
	vadd.f32	s15, s17, s16
	vmov	r0, s15
.LVL101:
	.loc 1 156 29 view .LVU251
	bl	__aeabi_f2d
.LVL102:
	vmov	d0, r0, r1
	bl	sqrt
.LVL103:
	vmov	r0, r1, d0
	.loc 1 156 22 view .LVU252
	bl	__aeabi_d2f
.LVL104:
	.loc 1 156 20 view .LVU253
	ldr	r3, .L59+52
	str	r0, [r3]	@ float
	.loc 1 158 17 is_stmt 1 view .LVU254
.LVL105:
	.loc 1 159 17 view .LVU255
	.loc 1 160 17 view .LVU256
	.loc 1 160 30 is_stmt 0 view .LVU257
	vmov	r0, s25
	bl	__aeabi_f2d
.LVL106:
	vmov	d8, r0, r1
	vmov	r0, s24
	bl	__aeabi_f2d
.LVL107:
	vmov.f32	s2, s16
	vmov.f32	s3, s17
	vmov	d0, r0, r1
	bl	atan2
.LVL108:
	vmov	r0, r1, d0
	bl	__aeabi_d2f
.LVL109:
	.loc 1 160 28 view .LVU258
	ldr	r4, .L59+56
	str	r0, [r4]	@ float
	.loc 1 161 5 is_stmt 1 view .LVU259
	mov	r0, r4
	bl	vFunc_Inf2pi
.LVL110:
	.loc 1 163 17 view .LVU260
	.loc 1 164 17 view .LVU261
	.loc 1 164 41 is_stmt 0 view .LVU262
	vldr.32	s15, [r4]
	vsub.f32	s15, s15, s19
	.loc 1 164 28 view .LVU263
	vstr.32	s15, [sp, #32]
.LVL111:
	.loc 1 165 17 is_stmt 1 view .LVU264
	add	r0, sp, #32
	bl	vFunc_Inf2pi
.LVL112:
	.loc 1 167 5 view .LVU265
	.loc 1 167 39 is_stmt 0 view .LVU266
	ldr	r3, .L59+24
	vldr.32	s15, [r3]
	vsub.f32	s15, s15, s19
	.loc 1 167 21 view .LVU267
	ldr	r4, .L59+60
	vstr.32	s15, [r4]
	.loc 1 168 5 is_stmt 1 view .LVU268
	mov	r0, r4
	bl	vFunc_Inf2pi
.LVL113:
	.loc 1 169 5 view .LVU269
	.loc 1 169 21 is_stmt 0 view .LVU270
	vldr.32	s15, [r4]
	vmov.f32	s14, #2.5e+1
	vmul.f32	s15, s15, s14
	vstr.32	s15, [r4]
	.loc 1 174 5 is_stmt 1 view .LVU271
	.loc 1 174 7 is_stmt 0 view .LVU272
	cmp	r6, #0
	bne	.L56
	.loc 1 177 24 view .LVU273
	movs	r0, #0
.L32:
.LVL114:
	.loc 1 182 5 is_stmt 1 view .LVU274
	.loc 1 182 7 is_stmt 0 view .LVU275
	vmov.f32	s15, #1.5e+1
	vcmpe.f32	s18, s15
	vmrs	APSR_nzcv, FPSCR
	bmi	.L33
	.loc 1 182 59 discriminator 1 view .LVU276
	ldr	r3, .L59+52
	vldr.32	s14, [r3]
	ldr	r3, .L59+48
	vldr.32	s15, [r3]
	.loc 1 182 40 discriminator 1 view .LVU277
	vcmpe.f32	s14, s15
	vmrs	APSR_nzcv, FPSCR
	bgt	.L33
	.loc 1 182 79 discriminator 2 view .LVU278
	cbz	r0, .L34
.L33:
	.loc 1 183 6 is_stmt 1 view .LVU279
.LVL115:
	.loc 1 184 6 view .LVU280
	bl	motor_brake
.LVL116:
	.loc 1 185 6 view .LVU281
	movs	r1, #0
	mov	r0, r1
	bl	vMotorMovementSwitch
.LVL117:
	.loc 1 186 6 view .LVU282
	.loc 1 186 20 is_stmt 0 view .LVU283
	movs	r3, #0
	ldr	r2, .L59+64
	str	r3, [r2]	@ float
	.loc 1 187 6 is_stmt 1 view .LVU284
	.loc 1 187 20 is_stmt 0 view .LVU285
	ldr	r2, .L59+68
	str	r3, [r2]	@ float
	.loc 1 188 6 is_stmt 1 view .LVU286
	.loc 1 188 19 is_stmt 0 view .LVU287
	movs	r2, #0
	strb	r2, [sp, #39]
	.loc 1 189 6 is_stmt 1 view .LVU288
	mov	r3, r2
	add	r1, sp, #39
	ldr	r0, .L59+72
	ldr	r0, [r0]
	bl	xQueueGenericSend
.LVL118:
	.loc 1 183 21 is_stmt 0 view .LVU289
	movs	r5, #1
.LVL119:
.L34:
	.loc 1 193 17 is_stmt 1 view .LVU290
	.loc 1 193 20 is_stmt 0 view .LVU291
	vmov.f32	s15, #1.5e+1
	vcmpe.f32	s18, s15
	vmrs	APSR_nzcv, FPSCR
	ble	.L35
	.loc 1 193 51 discriminator 1 view .LVU292
	cmp	r5, #0
	bne	.L35
	.loc 1 194 21 is_stmt 1 view .LVU293
.LVL120:
	.loc 1 196 6 view .LVU294
	.loc 1 198 21 view .LVU295
	.loc 1 198 23 is_stmt 0 view .LVU296
	cmp	r6, #0
	beq	.L37
	.loc 1 202 25 is_stmt 1 view .LVU297
	ldr	r3, .L59+60
	vldr.32	s2, [r3]
	vldr.32	s1, [sp, #32]
	vmov.f32	s0, s18
	bl	runDistanceController
.LVL121:
	.loc 1 204 7 view .LVU298
	.loc 1 204 20 is_stmt 0 view .LVU299
	movs	r3, #1
	strb	r3, [sp, #39]
	.loc 1 205 7 is_stmt 1 view .LVU300
	movs	r3, #0
	mov	r2, r3
	add	r1, sp, #39
	ldr	r0, .L59+72
	ldr	r0, [r0]
	bl	xQueueGenericSend
.LVL122:
	.loc 1 194 31 is_stmt 0 view .LVU301
	mov	r7, r5
	b	.L28
.L60:
	.align	2
.L59:
	.word	gHandshook
	.word	.LANCHOR8
	.word	xTickMutex
	.word	gLeftWheelTicks
	.word	gRightWheelTicks
	.word	xControllerBSem
	.word	.LANCHOR9
	.word	xPoseMutex
	.word	gTheta_hat
	.word	gX_hat
	.word	gY_hat
	.word	poseControllerQ
	.word	.LANCHOR10
	.word	.LANCHOR11
	.word	.LANCHOR0
	.word	.LANCHOR7
	.word	.LANCHOR1
	.word	.LANCHOR6
	.word	scanStatusQ
.LBE6:
.LFE292:
	.size	vMainPoseControllerTask, .-vMainPoseControllerTask
	.global	executingOrder
	.global	thetaTargt
	.global	controllerdata
	.global	controllerTime
	.global	controllerLogCounter
	.global	controllerLogDone
	.global	distanceToTarget
	.global	distanceDriven
	.global	rightIntError
	.global	leftIntError
	.global	thetaErrorInt
	.global	stopU
	.global	minU
	.global	maxU
	.global	thetaDoneCounter
	.global	integrateTheta
	.global	controllerPrint
	.global	thetaDerivative
	.global	previousThetahat
	.section	.bss.controllerLogCounter,"aw",%nobits
	.align	2
	.type	controllerLogCounter, %object
	.size	controllerLogCounter, 4
controllerLogCounter:
	.space	4
	.section	.bss.controllerLogDone,"aw",%nobits
	.type	controllerLogDone, %object
	.size	controllerLogDone, 1
controllerLogDone:
	.space	1
	.section	.bss.controllerPrint,"aw",%nobits
	.align	2
	.set	.LANCHOR8,. + 0
	.type	controllerPrint, %object
	.size	controllerPrint, 4
controllerPrint:
	.space	4
	.section	.bss.controllerTime,"aw",%nobits
	.align	2
	.type	controllerTime, %object
	.size	controllerTime, 4
controllerTime:
	.space	4
	.section	.bss.controllerdata,"aw",%nobits
	.align	2
	.type	controllerdata, %object
	.size	controllerdata, 20
controllerdata:
	.space	20
	.section	.bss.distanceDriven,"aw",%nobits
	.align	2
	.set	.LANCHOR11,. + 0
	.type	distanceDriven, %object
	.size	distanceDriven, 4
distanceDriven:
	.space	4
	.section	.bss.distanceToTarget,"aw",%nobits
	.align	2
	.set	.LANCHOR10,. + 0
	.type	distanceToTarget, %object
	.size	distanceToTarget, 4
distanceToTarget:
	.space	4
	.section	.bss.executingOrder,"aw",%nobits
	.type	executingOrder, %object
	.size	executingOrder, 1
executingOrder:
	.space	1
	.section	.bss.leftIntError,"aw",%nobits
	.align	2
	.type	leftIntError, %object
	.size	leftIntError, 4
leftIntError:
	.space	4
	.section	.bss.previousThetahat,"aw",%nobits
	.align	2
	.set	.LANCHOR9,. + 0
	.type	previousThetahat, %object
	.size	previousThetahat, 4
previousThetahat:
	.space	4
	.section	.bss.rightIntError,"aw",%nobits
	.align	2
	.set	.LANCHOR1,. + 0
	.type	rightIntError, %object
	.size	rightIntError, 4
rightIntError:
	.space	4
	.section	.bss.thetaDerivative,"aw",%nobits
	.align	2
	.set	.LANCHOR7,. + 0
	.type	thetaDerivative, %object
	.size	thetaDerivative, 4
thetaDerivative:
	.space	4
	.section	.bss.thetaDoneCounter,"aw",%nobits
	.set	.LANCHOR12,. + 0
	.type	thetaDoneCounter, %object
	.size	thetaDoneCounter, 1
thetaDoneCounter:
	.space	1
	.section	.bss.thetaErrorInt,"aw",%nobits
	.align	2
	.set	.LANCHOR6,. + 0
	.type	thetaErrorInt, %object
	.size	thetaErrorInt, 4
thetaErrorInt:
	.space	4
	.section	.bss.thetaTargt,"aw",%nobits
	.align	2
	.set	.LANCHOR0,. + 0
	.type	thetaTargt, %object
	.size	thetaTargt, 4
thetaTargt:
	.space	4
	.section	.data.integrateTheta,"aw"
	.set	.LANCHOR5,. + 0
	.type	integrateTheta, %object
	.size	integrateTheta, 1
integrateTheta:
	.byte	1
	.section	.data.maxU,"aw"
	.align	2
	.set	.LANCHOR2,. + 0
	.type	maxU, %object
	.size	maxU, 4
maxU:
	.word	1103626240
	.section	.data.minU,"aw"
	.align	2
	.set	.LANCHOR3,. + 0
	.type	minU, %object
	.size	minU, 4
minU:
	.word	1101004800
	.section	.data.stopU,"aw"
	.align	2
	.set	.LANCHOR4,. + 0
	.type	stopU, %object
	.size	stopU, 4
stopU:
	.word	1065353216
	.section	.debug_frame,"",%progbits
.Lframe0:
	.4byte	.LECIE0-.LSCIE0
.LSCIE0:
	.4byte	0xffffffff
	.byte	0x3
	.ascii	"\000"
	.uleb128 0x1
	.sleb128 -4
	.uleb128 0xe
	.byte	0xc
	.uleb128 0xd
	.uleb128 0
	.align	2
.LECIE0:
.LSFDE0:
	.4byte	.LEFDE0-.LASFDE0
.LASFDE0:
	.4byte	.Lframe0
	.4byte	.LFB293
	.4byte	.LFE293-.LFB293
	.align	2
.LEFDE0:
.LSFDE2:
	.4byte	.LEFDE2-.LASFDE2
.LASFDE2:
	.4byte	.Lframe0
	.4byte	.LFB294
	.4byte	.LFE294-.LFB294
	.byte	0x4
	.4byte	.LCFI0-.LFB294
	.byte	0xe
	.uleb128 0x8
	.byte	0x83
	.uleb128 0x2
	.byte	0x8e
	.uleb128 0x1
	.align	2
.LEFDE2:
.LSFDE4:
	.4byte	.LEFDE4-.LASFDE4
.LASFDE4:
	.4byte	.Lframe0
	.4byte	.LFB295
	.4byte	.LFE295-.LFB295
	.byte	0x4
	.4byte	.LCFI1-.LFB295
	.byte	0xe
	.uleb128 0x10
	.byte	0x83
	.uleb128 0x4
	.byte	0x84
	.uleb128 0x3
	.byte	0x85
	.uleb128 0x2
	.byte	0x8e
	.uleb128 0x1
	.byte	0x4
	.4byte	.LCFI2-.LCFI1
	.byte	0xe
	.uleb128 0x20
	.byte	0x5
	.uleb128 0x50
	.uleb128 0x8
	.byte	0x5
	.uleb128 0x51
	.uleb128 0x7
	.byte	0x5
	.uleb128 0x52
	.uleb128 0x6
	.byte	0x5
	.uleb128 0x53
	.uleb128 0x5
	.byte	0x4
	.4byte	.LCFI3-.LCFI2
	.byte	0xa
	.byte	0x6
	.uleb128 0x52
	.byte	0x6
	.uleb128 0x53
	.byte	0x6
	.uleb128 0x50
	.byte	0x6
	.uleb128 0x51
	.byte	0xe
	.uleb128 0x10
	.byte	0x4
	.4byte	.LCFI4-.LCFI3
	.byte	0xb
	.align	2
.LEFDE4:
.LSFDE6:
	.4byte	.LEFDE6-.LASFDE6
.LASFDE6:
	.4byte	.Lframe0
	.4byte	.LFB292
	.4byte	.LFE292-.LFB292
	.byte	0x4
	.4byte	.LCFI5-.LFB292
	.byte	0xe
	.uleb128 0x14
	.byte	0x84
	.uleb128 0x5
	.byte	0x85
	.uleb128 0x4
	.byte	0x86
	.uleb128 0x3
	.byte	0x87
	.uleb128 0x2
	.byte	0x8e
	.uleb128 0x1
	.byte	0x4
	.4byte	.LCFI6-.LCFI5
	.byte	0xe
	.uleb128 0x3c
	.byte	0x5
	.uleb128 0x50
	.uleb128 0xf
	.byte	0x5
	.uleb128 0x51
	.uleb128 0xe
	.byte	0x5
	.uleb128 0x52
	.uleb128 0xd
	.byte	0x5
	.uleb128 0x53
	.uleb128 0xc
	.byte	0x5
	.uleb128 0x54
	.uleb128 0xb
	.byte	0x5
	.uleb128 0x55
	.uleb128 0xa
	.byte	0x5
	.uleb128 0x56
	.uleb128 0x9
	.byte	0x5
	.uleb128 0x57
	.uleb128 0x8
	.byte	0x5
	.uleb128 0x58
	.uleb128 0x7
	.byte	0x5
	.uleb128 0x59
	.uleb128 0x6
	.byte	0x4
	.4byte	.LCFI7-.LCFI6
	.byte	0xe
	.uleb128 0x70
	.align	2
.LEFDE6:
	.text
.Letext0:
	.file 2 "C:\\nRF5_SDK_15.0.0_a53641a\\examples\\ble_peripheral\\slam\\software\\globals.h"